(lp1
(lp2
I1
aI0
aI0
aI0
aa(lp3
I1
aI0
aI0
aI0
aa(lp4
I7
aI0
aI0
aI14
aa(lp5
I6
aI1
aI0
aI4
aa(lp6
I7
aI0
aI0
aI4
aa(lp7
I1
aI0
aI0
aI0
aa(lp8
I4
aI0
aI0
aI0
aa(lp9
I9
aI1
aI0
aI10
aa(lp10
I7
aI0
aI0
aI4
aa(lp11
I6
aI1
aI0
aI4
aa(lp12
I7
aI0
aI0
aI4
aa(lp13
I3
aI0
aI0
aI0
aa(lp14
I1
aI0
aI0
aI0
aa(lp15
I7
aI0
aI0
aI16
aa(lp16
I1
aI0
aI0
aI0
aa(lp17
I1
aI0
aI0
aI0
aa(lp18
I1
aI0
aI0
aI0
aa(lp19
I7
aI0
aI0
aI4
aa(lp20
I7
aI0
aI0
aI4
aa(lp21
I7
aI0
aI0
aI6
aa(lp22
I9
aI1
aI0
aI12
aa(lp23
I4
aI0
aI0
aI0
aa(lp24
I1
aI0
aI0
aI0
aa(lp25
I9
aI1
aI0
aI8
aa(lp26
I6
aI0
aI0
aI8
aa(lp27
I8
aI1
aI0
aI14
aa(lp28
I4
aI0
aI0
aI0
aa(lp29
I9
aI1
aI0
aI16
aa(lp30
I1
aI0
aI0
aI0
aa(lp31
I9
aI1
aI0
aI10
aa(lp32
I4
aI0
aI0
aI0
aa(lp33
I4
aI0
aI0
aI0
aa(lp34
I4
aI0
aI0
aI0
aa(lp35
I6
aI0
aI0
aI8
aa(lp36
I6
aI1
aI0
aI4
aa(lp37
I1
aI0
aI0
aI0
aa(lp38
I6
aI1
aI0
aI4
aa(lp39
I4
aI0
aI0
aI4
aa(lp40
I7
aI0
aI0
aI16
aa(lp41
I10
aI1
aI0
aI10
aa(lp42
I8
aI0
aI0
aI6
aa(lp43
I6
aI0
aI0
aI4
aa(lp44
I1
aI0
aI0
aI0
aa(lp45
I4
aI0
aI0
aI2
aa(lp46
I4
aI0
aI0
aI0
aa(lp47
I1
aI0
aI0
aI0
aa(lp48
I7
aI0
aI0
aI4
aa(lp49
I1
aI0
aI0
aI0
aa(lp50
I1
aI0
aI0
aI0
aa(lp51
I1
aI0
aI0
aI0
aa(lp52
I6
aI0
aI0
aI8
aa(lp53
I6
aI0
aI0
aI12
aa(lp54
I4
aI0
aI0
aI2
aa(lp55
I9
aI1
aI0
aI8
aa(lp56
I1
aI0
aI0
aI0
aa(lp57
I6
aI1
aI0
aI8
aa(lp58
I7
aI0
aI0
aI4
aa(lp59
I9
aI1
aI0
aI10
aa(lp60
I7
aI0
aI0
aI4
aa(lp61
I7
aI0
aI0
aI8
aa(lp62
I7
aI0
aI0
aI4
aa(lp63
I7
aI0
aI0
aI4
aa(lp64
I9
aI1
aI0
aI8
aa(lp65
I10
aI1
aI0
aI10
aa(lp66
I1
aI0
aI0
aI0
aa(lp67
I4
aI0
aI0
aI0
aa(lp68
I7
aI0
aI0
aI10
aa(lp69
I4
aI0
aI0
aI2
aa(lp70
I9
aI1
aI0
aI10
aa(lp71
I7
aI0
aI0
aI4
aa(lp72
I1
aI0
aI0
aI0
aa(lp73
I6
aI1
aI0
aI16
aa(lp74
I7
aI0
aI0
aI4
aa(lp75
I4
aI0
aI0
aI0
aa(lp76
I4
aI0
aI0
aI0
aa(lp77
I4
aI0
aI0
aI0
aa(lp78
I7
aI0
aI0
aI4
aa(lp79
I4
aI0
aI0
aI0
aa(lp80
I7
aI0
aI0
aI10
aa(lp81
I6
aI1
aI0
aI8
aa(lp82
I1
aI0
aI0
aI0
aa(lp83
I8
aI1
aI0
aI8
aa(lp84
I1
aI0
aI0
aI0
aa(lp85
I9
aI1
aI0
aI26
aa(lp86
I8
aI1
aI0
aI10
aa(lp87
I6
aI0
aI0
aI4
aa(lp88
I1
aI0
aI0
aI0
aa(lp89
I1
aI0
aI0
aI0
aa(lp90
I7
aI0
aI0
aI4
aa(lp91
I9
aI1
aI0
aI10
aa(lp92
I6
aI1
aI0
aI4
aa(lp93
I9
aI1
aI0
aI10
aa(lp94
I4
aI0
aI0
aI0
aa(lp95
I4
aI0
aI0
aI0
aa(lp96
I1
aI0
aI0
aI0
aa(lp97
I4
aI0
aI0
aI4
aa(lp98
I9
aI1
aI0
aI14
aa(lp99
I1
aI0
aI0
aI0
aa(lp100
I9
aI1
aI0
aI14
aa(lp101
I1
aI0
aI0
aI0
aa(lp102
I4
aI0
aI0
aI0
aa(lp103
I4
aI0
aI0
aI0
aa(lp104
I9
aI1
aI0
aI14
aa(lp105
I1
aI0
aI0
aI0
aa(lp106
I4
aI0
aI0
aI0
aa(lp107
I9
aI1
aI0
aI8
aa(lp108
I10
aI1
aI0
aI18
aa(lp109
I6
aI0
aI0
aI4
aa(lp110
I1
aI0
aI0
aI0
aa(lp111
I9
aI1
aI0
aI26
aa(lp112
I7
aI0
aI0
aI4
aa(lp113
I6
aI1
aI0
aI4
aa(lp114
I9
aI1
aI0
aI10
aa(lp115
I7
aI0
aI0
aI4
aa(lp116
I4
aI0
aI0
aI2
aa(lp117
I1
aI0
aI0
aI0
aa(lp118
I6
aI1
aI0
aI8
aa(lp119
I9
aI1
aI0
aI14
aa(lp120
I7
aI0
aI0
aI10
aa(lp121
I4
aI0
aI0
aI4
aa(lp122
I8
aI0
aI0
aI8
aa(lp123
I9
aI1
aI0
aI14
aa(lp124
I6
aI1
aI0
aI6
aa(lp125
I4
aI0
aI0
aI4
aa(lp126
I9
aI1
aI0
aI14
aa(lp127
I4
aI0
aI0
aI4
aa(lp128
I9
aI1
aI0
aI14
aa(lp129
I1
aI0
aI0
aI0
aa(lp130
I3
aI0
aI0
aI2
aa(lp131
I1
aI0
aI0
aI0
aa(lp132
I7
aI0
aI0
aI4
aa(lp133
I1
aI0
aI0
aI0
aa(lp134
I1
aI0
aI0
aI0
aa(lp135
I1
aI0
aI0
aI0
aa(lp136
I8
aI1
aI0
aI14
aa(lp137
I7
aI0
aI0
aI4
aa(lp138
I11
aI0
aI0
aI20
aa(lp139
I1
aI0
aI0
aI0
aa(lp140
I6
aI0
aI0
aI4
aa(lp141
I7
aI0
aI0
aI4
aa(lp142
I1
aI0
aI0
aI0
aa(lp143
I7
aI0
aI0
aI4
aa(lp144
I7
aI0
aI0
aI14
aa(lp145
I4
aI0
aI0
aI0
aa(lp146
I1
aI0
aI0
aI0
aa(lp147
I1
aI0
aI0
aI0
aa(lp148
I1
aI0
aI0
aI0
aa(lp149
I9
aI1
aI0
aI8
aa(lp150
I3
aI0
aI0
aI0
aa(lp151
I9
aI1
aI0
aI10
aa(lp152
I6
aI1
aI0
aI4
aa(lp153
I1
aI0
aI0
aI0
aa(lp154
I6
aI0
aI0
aI4
aa(lp155
I1
aI0
aI0
aI0
aa(lp156
I6
aI1
aI0
aI4
aa(lp157
I1
aI0
aI0
aI0
aa(lp158
I6
aI1
aI0
aI6
aa(lp159
I9
aI1
aI0
aI12
aa(lp160
I9
aI1
aI0
aI8
aa(lp161
I1
aI0
aI0
aI0
aa(lp162
I8
aI0
aI0
aI10
aa(lp163
I9
aI1
aI0
aI8
aa(lp164
I4
aI0
aI0
aI0
aa(lp165
I9
aI1
aI0
aI8
aa(lp166
I1
aI0
aI0
aI0
aa(lp167
I4
aI0
aI0
aI2
aa(lp168
I7
aI0
aI0
aI10
aa(lp169
I7
aI0
aI0
aI10
aa(lp170
I6
aI1
aI0
aI4
aa(lp171
I3
aI0
aI0
aI2
aa(lp172
I1
aI0
aI0
aI0
aa(lp173
I1
aI0
aI0
aI0
aa(lp174
I9
aI1
aI0
aI14
aa(lp175
I6
aI1
aI0
aI8
aa(lp176
I5
aI1
aI0
aI4
aa(lp177
I9
aI0
aI0
aI12
aa(lp178
I4
aI0
aI0
aI2
aa(lp179
I7
aI0
aI0
aI4
aa(lp180
I1
aI0
aI0
aI0
aa(lp181
I9
aI1
aI0
aI8
aa(lp182
I7
aI0
aI0
aI8
aa(lp183
I6
aI0
aI0
aI8
aa(lp184
I1
aI0
aI0
aI0
aa(lp185
I4
aI0
aI0
aI0
aa(lp186
I1
aI0
aI0
aI0
aa(lp187
I4
aI0
aI0
aI0
aa(lp188
I4
aI0
aI0
aI0
aa(lp189
I4
aI0
aI0
aI4
aa(lp190
I9
aI0
aI0
aI8
aa(lp191
I7
aI0
aI0
aI4
aa(lp192
I4
aI0
aI0
aI0
aa(lp193
I1
aI0
aI0
aI0
aa(lp194
I1
aI0
aI0
aI0
aa(lp195
I1
aI0
aI0
aI0
aa(lp196
I8
aI0
aI0
aI6
aa(lp197
I1
aI0
aI0
aI0
aa.