(lp1
(lp2
I4
aI0
aI0
aI4
aa(lp3
I2
aI0
aI0
aI0
aa(lp4
I1
aI0
aI0
aI0
aa(lp5
I6
aI1
aI0
aI10
aa(lp6
I4
aI0
aI0
aI4
aa(lp7
I1
aI0
aI0
aI0
aa(lp8
I1
aI0
aI0
aI0
aa(lp9
I4
aI0
aI0
aI4
aa(lp10
I1
aI0
aI0
aI0
aa(lp11
I4
aI0
aI0
aI4
aa(lp12
I6
aI1
aI0
aI8
aa(lp13
I2
aI0
aI0
aI0
aa(lp14
I4
aI1
aI0
aI4
aa(lp15
I4
aI0
aI0
aI8
aa(lp16
I2
aI0
aI0
aI0
aa(lp17
I6
aI1
aI0
aI8
aa(lp18
I6
aI1
aI0
aI8
aa(lp19
I4
aI0
aI0
aI10
aa(lp20
I2
aI0
aI0
aI0
aa(lp21
I1
aI0
aI0
aI0
aa(lp22
I2
aI0
aI0
aI0
aa(lp23
I6
aI1
aI0
aI8
aa(lp24
I4
aI0
aI0
aI4
aa(lp25
I1
aI0
aI0
aI0
aa(lp26
I1
aI0
aI0
aI0
aa(lp27
I1
aI0
aI0
aI0
aa(lp28
I2
aI0
aI0
aI2
aa(lp29
I2
aI0
aI0
aI0
aa(lp30
I2
aI0
aI0
aI0
aa(lp31
I6
aI1
aI0
aI8
aa(lp32
I4
aI0
aI0
aI4
aa(lp33
I2
aI0
aI0
aI0
aa(lp34
I4
aI0
aI0
aI4
aa(lp35
I2
aI0
aI0
aI0
aa(lp36
I4
aI0
aI0
aI4
aa(lp37
I2
aI0
aI0
aI0
aa(lp38
I1
aI0
aI0
aI0
aa(lp39
I4
aI0
aI0
aI4
aa(lp40
I4
aI1
aI0
aI4
aa(lp41
I4
aI0
aI0
aI4
aa(lp42
I1
aI0
aI0
aI0
aa(lp43
I1
aI0
aI0
aI0
aa(lp44
I1
aI0
aI0
aI0
aa(lp45
I6
aI1
aI0
aI10
aa(lp46
I2
aI0
aI0
aI0
aa(lp47
I1
aI0
aI0
aI0
aa(lp48
I4
aI1
aI0
aI4
aa(lp49
I4
aI0
aI0
aI4
aa(lp50
I2
aI0
aI0
aI0
aa(lp51
I6
aI1
aI0
aI10
aa(lp52
I1
aI0
aI0
aI0
aa(lp53
I1
aI0
aI0
aI0
aa(lp54
I4
aI0
aI0
aI8
aa(lp55
I6
aI1
aI0
aI8
aa(lp56
I1
aI0
aI0
aI0
aa(lp57
I1
aI0
aI0
aI0
aa(lp58
I1
aI0
aI0
aI0
aa(lp59
I6
aI1
aI0
aI10
aa(lp60
I4
aI0
aI0
aI4
aa(lp61
I1
aI0
aI0
aI0
aa(lp62
I4
aI0
aI0
aI4
aa(lp63
I7
aI1
aI0
aI18
aa(lp64
I6
aI1
aI0
aI10
aa(lp65
I2
aI0
aI0
aI0
aa(lp66
I2
aI0
aI0
aI0
aa(lp67
I4
aI1
aI0
aI4
aa(lp68
I4
aI0
aI0
aI4
aa(lp69
I4
aI0
aI0
aI8
aa(lp70
I4
aI1
aI0
aI8
aa(lp71
I2
aI0
aI0
aI2
aa(lp72
I1
aI0
aI0
aI0
aa(lp73
I4
aI1
aI0
aI4
aa(lp74
I1
aI0
aI0
aI0
aa(lp75
I6
aI1
aI0
aI10
aa(lp76
I4
aI1
aI0
aI4
aa(lp77
I4
aI0
aI0
aI4
aa(lp78
I4
aI0
aI0
aI4
aa(lp79
I6
aI1
aI0
aI8
aa(lp80
I4
aI0
aI0
aI4
aa(lp81
I1
aI0
aI0
aI0
aa(lp82
I4
aI0
aI0
aI4
aa(lp83
I4
aI0
aI0
aI4
aa(lp84
I1
aI0
aI0
aI0
aa(lp85
I1
aI0
aI0
aI0
aa(lp86
I4
aI0
aI0
aI4
aa(lp87
I6
aI1
aI0
aI10
aa(lp88
I6
aI1
aI0
aI10
aa(lp89
I6
aI1
aI0
aI8
aa(lp90
I4
aI0
aI0
aI4
aa(lp91
I2
aI0
aI0
aI0
aa(lp92
I1
aI0
aI0
aI0
aa(lp93
I8
aI0
aI0
aI12
aa(lp94
I4
aI1
aI0
aI4
aa(lp95
I2
aI0
aI0
aI0
aa(lp96
I6
aI0
aI0
aI8
aa(lp97
I6
aI1
aI0
aI8
aa(lp98
I6
aI1
aI0
aI14
aa(lp99
I1
aI0
aI0
aI0
aa(lp100
I2
aI0
aI0
aI0
aa(lp101
I2
aI0
aI0
aI0
aa(lp102
I6
aI1
aI0
aI8
aa(lp103
I4
aI0
aI0
aI4
aa(lp104
I6
aI1
aI0
aI8
aa(lp105
I1
aI0
aI0
aI0
aa(lp106
I6
aI1
aI0
aI10
aa(lp107
I2
aI0
aI0
aI0
aa(lp108
I4
aI0
aI0
aI6
aa(lp109
I1
aI0
aI0
aI0
aa(lp110
I2
aI0
aI0
aI0
aa(lp111
I2
aI0
aI0
aI2
aa(lp112
I1
aI0
aI0
aI0
aa(lp113
I1
aI0
aI0
aI0
aa(lp114
I4
aI0
aI0
aI4
aa(lp115
I4
aI0
aI0
aI4
aa(lp116
I4
aI0
aI0
aI4
aa(lp117
I4
aI0
aI0
aI4
aa(lp118
I6
aI1
aI0
aI8
aa(lp119
I4
aI0
aI0
aI8
aa(lp120
I4
aI0
aI0
aI4
aa(lp121
I2
aI0
aI0
aI0
aa(lp122
I6
aI1
aI0
aI8
aa(lp123
I1
aI0
aI0
aI0
aa(lp124
I4
aI1
aI0
aI8
aa(lp125
I6
aI1
aI0
aI8
aa(lp126
I1
aI0
aI0
aI0
aa(lp127
I4
aI0
aI0
aI4
aa(lp128
I2
aI0
aI0
aI0
aa(lp129
I1
aI0
aI0
aI0
aa(lp130
I4
aI0
aI0
aI4
aa(lp131
I1
aI0
aI0
aI0
aa(lp132
I5
aI0
aI0
aI6
aa(lp133
I4
aI1
aI0
aI4
aa(lp134
I1
aI0
aI0
aI0
aa(lp135
I4
aI1
aI0
aI4
aa(lp136
I2
aI0
aI0
aI0
aa(lp137
I6
aI1
aI0
aI8
aa(lp138
I6
aI1
aI0
aI10
aa(lp139
I4
aI1
aI0
aI4
aa(lp140
I1
aI0
aI0
aI0
aa(lp141
I4
aI0
aI0
aI4
aa(lp142
I1
aI0
aI0
aI0
aa(lp143
I6
aI1
aI0
aI8
aa(lp144
I6
aI1
aI0
aI14
aa(lp145
I5
aI0
aI0
aI6
aa(lp146
I2
aI0
aI0
aI0
aa(lp147
I4
aI0
aI0
aI4
aa(lp148
I6
aI1
aI0
aI10
aa(lp149
I2
aI0
aI0
aI0
aa(lp150
I1
aI0
aI0
aI0
aa(lp151
I4
aI0
aI0
aI4
aa(lp152
I2
aI0
aI0
aI0
aa(lp153
I4
aI0
aI0
aI4
aa(lp154
I1
aI0
aI0
aI0
aa(lp155
I1
aI0
aI0
aI0
aa(lp156
I1
aI0
aI0
aI0
aa(lp157
I4
aI1
aI0
aI8
aa(lp158
I6
aI1
aI0
aI14
aa(lp159
I1
aI0
aI0
aI0
aa(lp160
I4
aI0
aI0
aI4
aa(lp161
I1
aI0
aI0
aI0
aa(lp162
I1
aI0
aI0
aI0
aa(lp163
I1
aI0
aI0
aI0
aa(lp164
I6
aI0
aI0
aI8
aa(lp165
I6
aI1
aI0
aI14
aa(lp166
I4
aI0
aI0
aI4
aa(lp167
I6
aI1
aI0
aI8
aa(lp168
I2
aI0
aI0
aI2
aa(lp169
I1
aI0
aI0
aI0
aa(lp170
I2
aI0
aI0
aI0
aa(lp171
I7
aI1
aI0
aI10
aa(lp172
I4
aI0
aI0
aI4
aa(lp173
I4
aI1
aI0
aI4
aa(lp174
I4
aI0
aI0
aI4
aa(lp175
I2
aI0
aI0
aI0
aa(lp176
I5
aI0
aI0
aI6
aa(lp177
I4
aI0
aI0
aI4
aa(lp178
I4
aI0
aI0
aI4
aa(lp179
I4
aI1
aI0
aI4
aa(lp180
I4
aI1
aI0
aI4
aa(lp181
I2
aI0
aI0
aI0
aa(lp182
I5
aI0
aI0
aI6
aa(lp183
I2
aI0
aI0
aI0
aa(lp184
I2
aI0
aI0
aI0
aa(lp185
I6
aI1
aI0
aI8
aa(lp186
I1
aI0
aI0
aI0
aa(lp187
I1
aI0
aI0
aI0
aa(lp188
I4
aI0
aI0
aI4
aa(lp189
I6
aI1
aI0
aI8
aa(lp190
I4
aI0
aI0
aI4
aa(lp191
I1
aI0
aI0
aI0
aa(lp192
I4
aI0
aI0
aI4
aa(lp193
I1
aI0
aI0
aI0
aa(lp194
I4
aI0
aI0
aI4
aa(lp195
I6
aI1
aI0
aI8
aa(lp196
I1
aI0
aI0
aI0
aa(lp197
I6
aI1
aI0
aI8
aa.