(lp1
(lp2
I4
aI0
aI0
aI8
aa(lp3
I11
aI0
aI0
aI20
aa(lp4
I9
aI1
aI0
aI16
aa(lp5
I6
aI0
aI0
aI4
aa(lp6
I1
aI0
aI0
aI0
aa(lp7
I1
aI0
aI0
aI0
aa(lp8
I4
aI0
aI0
aI4
aa(lp9
I2
aI0
aI0
aI0
aa(lp10
I7
aI0
aI0
aI6
aa(lp11
I9
aI1
aI0
aI12
aa(lp12
I4
aI0
aI0
aI4
aa(lp13
I4
aI0
aI0
aI4
aa(lp14
I2
aI0
aI0
aI0
aa(lp15
I1
aI0
aI0
aI0
aa(lp16
I4
aI0
aI0
aI4
aa(lp17
I9
aI1
aI0
aI8
aa(lp18
I7
aI0
aI0
aI4
aa(lp19
I9
aI1
aI0
aI10
aa(lp20
I4
aI0
aI0
aI4
aa(lp21
I8
aI0
aI0
aI10
aa(lp22
I4
aI1
aI0
aI4
aa(lp23
I2
aI0
aI0
aI0
aa(lp24
I8
aI1
aI0
aI10
aa(lp25
I6
aI1
aI0
aI4
aa(lp26
I1
aI0
aI0
aI0
aa(lp27
I7
aI0
aI0
aI14
aa(lp28
I8
aI1
aI0
aI14
aa(lp29
I2
aI0
aI0
aI0
aa(lp30
I1
aI0
aI0
aI0
aa(lp31
I4
aI1
aI0
aI4
aa(lp32
I2
aI0
aI0
aI0
aa(lp33
I1
aI0
aI0
aI0
aa(lp34
I9
aI1
aI0
aI14
aa(lp35
I1
aI0
aI0
aI0
aa(lp36
I8
aI1
aI0
aI8
aa(lp37
I1
aI0
aI0
aI0
aa(lp38
I1
aI0
aI0
aI0
aa(lp39
I6
aI1
aI0
aI4
aa(lp40
I1
aI0
aI0
aI0
aa(lp41
I2
aI0
aI0
aI0
aa(lp42
I9
aI1
aI0
aI14
aa(lp43
I4
aI0
aI0
aI8
aa(lp44
I9
aI1
aI0
aI14
aa(lp45
I1
aI0
aI0
aI0
aa(lp46
I2
aI0
aI0
aI0
aa(lp47
I7
aI0
aI0
aI4
aa(lp48
I2
aI0
aI0
aI0
aa(lp49
I9
aI1
aI0
aI8
aa(lp50
I10
aI1
aI0
aI18
aa(lp51
I4
aI0
aI0
aI10
aa(lp52
I9
aI1
aI0
aI10
aa(lp53
I7
aI0
aI0
aI4
aa(lp54
I1
aI0
aI0
aI0
aa(lp55
I1
aI0
aI0
aI0
aa(lp56
I2
aI0
aI0
aI2
aa(lp57
I2
aI0
aI0
aI0
aa(lp58
I2
aI0
aI0
aI2
aa(lp59
I7
aI0
aI0
aI10
aa(lp60
I1
aI0
aI0
aI0
aa(lp61
I9
aI1
aI0
aI14
aa(lp62
I9
aI1
aI0
aI26
aa(lp63
I1
aI0
aI0
aI0
aa(lp64
I1
aI0
aI0
aI0
aa(lp65
I1
aI0
aI0
aI0
aa(lp66
I4
aI0
aI0
aI4
aa(lp67
I7
aI0
aI0
aI16
aa(lp68
I4
aI1
aI0
aI4
aa(lp69
I2
aI0
aI0
aI0
aa(lp70
I4
aI0
aI0
aI2
aa(lp71
I4
aI0
aI0
aI4
aa(lp72
I4
aI0
aI0
aI8
aa(lp73
I6
aI1
aI0
aI4
aa(lp74
I2
aI0
aI0
aI0
aa(lp75
I1
aI0
aI0
aI0
aa(lp76
I4
aI0
aI0
aI4
aa(lp77
I2
aI0
aI0
aI2
aa(lp78
I9
aI1
aI0
aI8
aa(lp79
I4
aI0
aI0
aI4
aa(lp80
I2
aI0
aI0
aI0
aa(lp81
I1
aI0
aI0
aI0
aa(lp82
I1
aI0
aI0
aI0
aa(lp83
I1
aI0
aI0
aI0
aa(lp84
I9
aI1
aI0
aI26
aa(lp85
I1
aI0
aI0
aI0
aa(lp86
I1
aI0
aI0
aI0
aa(lp87
I4
aI1
aI0
aI4
aa(lp88
I2
aI0
aI0
aI0
aa(lp89
I4
aI0
aI0
aI4
aa(lp90
I1
aI0
aI0
aI0
aa(lp91
I2
aI0
aI0
aI0
aa(lp92
I9
aI1
aI0
aI10
aa(lp93
I2
aI0
aI0
aI0
aa(lp94
I8
aI1
aI0
aI14
aa(lp95
I4
aI0
aI0
aI4
aa(lp96
I1
aI0
aI0
aI0
aa(lp97
I1
aI0
aI0
aI0
aa(lp98
I6
aI1
aI0
aI16
aa(lp99
I2
aI0
aI0
aI0
aa(lp100
I9
aI1
aI0
aI8
aa(lp101
I4
aI0
aI0
aI4
aa(lp102
I4
aI0
aI0
aI4
aa(lp103
I7
aI0
aI0
aI4
aa(lp104
I2
aI0
aI0
aI0
aa(lp105
I4
aI0
aI0
aI4
aa(lp106
I4
aI0
aI0
aI4
aa(lp107
I4
aI0
aI0
aI4
aa(lp108
I9
aI1
aI0
aI14
aa(lp109
I4
aI0
aI0
aI4
aa(lp110
I9
aI1
aI0
aI8
aa(lp111
I1
aI0
aI0
aI0
aa(lp112
I4
aI0
aI0
aI4
aa(lp113
I4
aI0
aI0
aI4
aa(lp114
I1
aI0
aI0
aI0
aa(lp115
I1
aI0
aI0
aI0
aa(lp116
I3
aI0
aI0
aI0
aa(lp117
I9
aI1
aI0
aI14
aa(lp118
I7
aI0
aI0
aI8
aa(lp119
I2
aI0
aI0
aI0
aa(lp120
I6
aI1
aI0
aI4
aa(lp121
I6
aI1
aI0
aI4
aa(lp122
I4
aI1
aI0
aI8
aa(lp123
I2
aI0
aI0
aI0
aa(lp124
I10
aI1
aI0
aI10
aa(lp125
I4
aI0
aI0
aI4
aa(lp126
I2
aI0
aI0
aI0
aa(lp127
I1
aI0
aI0
aI0
aa(lp128
I4
aI1
aI0
aI8
aa(lp129
I6
aI0
aI0
aI8
aa(lp130
I6
aI1
aI0
aI8
aa(lp131
I9
aI1
aI0
aI8
aa(lp132
I9
aI1
aI0
aI14
aa(lp133
I2
aI0
aI0
aI0
aa(lp134
I4
aI0
aI0
aI4
aa(lp135
I1
aI0
aI0
aI0
aa(lp136
I1
aI0
aI0
aI0
aa(lp137
I2
aI0
aI0
aI0
aa(lp138
I2
aI0
aI0
aI0
aa(lp139
I1
aI0
aI0
aI0
aa(lp140
I7
aI0
aI0
aI4
aa(lp141
I1
aI0
aI0
aI0
aa(lp142
I2
aI0
aI0
aI0
aa(lp143
I2
aI0
aI0
aI0
aa(lp144
I4
aI1
aI0
aI4
aa(lp145
I9
aI1
aI0
aI10
aa(lp146
I2
aI0
aI0
aI0
aa(lp147
I4
aI0
aI0
aI0
aa(lp148
I9
aI0
aI0
aI8
aa(lp149
I2
aI0
aI0
aI0
aa(lp150
I1
aI0
aI0
aI0
aa(lp151
I2
aI0
aI0
aI0
aa(lp152
I4
aI0
aI0
aI4
aa(lp153
I9
aI1
aI0
aI10
aa(lp154
I9
aI0
aI0
aI12
aa(lp155
I1
aI0
aI0
aI0
aa(lp156
I1
aI0
aI0
aI0
aa(lp157
I1
aI0
aI0
aI0
aa(lp158
I1
aI0
aI0
aI0
aa(lp159
I1
aI0
aI0
aI0
aa(lp160
I4
aI0
aI0
aI4
aa(lp161
I8
aI0
aI0
aI8
aa(lp162
I1
aI0
aI0
aI0
aa(lp163
I9
aI1
aI0
aI10
aa(lp164
I1
aI0
aI0
aI0
aa(lp165
I4
aI0
aI0
aI4
aa(lp166
I1
aI0
aI0
aI0
aa(lp167
I8
aI0
aI0
aI6
aa(lp168
I2
aI0
aI0
aI2
aa(lp169
I7
aI0
aI0
aI4
aa(lp170
I6
aI0
aI0
aI4
aa(lp171
I7
aI0
aI0
aI4
aa(lp172
I1
aI0
aI0
aI0
aa(lp173
I1
aI0
aI0
aI0
aa(lp174
I9
aI1
aI0
aI12
aa(lp175
I2
aI0
aI0
aI0
aa(lp176
I1
aI0
aI0
aI0
aa(lp177
I9
aI1
aI0
aI8
aa(lp178
I2
aI0
aI0
aI0
aa(lp179
I4
aI1
aI0
aI4
aa(lp180
I4
aI0
aI0
aI4
aa(lp181
I9
aI1
aI0
aI14
aa(lp182
I1
aI0
aI0
aI0
aa(lp183
I9
aI1
aI0
aI10
aa(lp184
I1
aI0
aI0
aI0
aa(lp185
I2
aI0
aI0
aI0
aa(lp186
I9
aI1
aI0
aI8
aa(lp187
I1
aI0
aI0
aI0
aa(lp188
I9
aI1
aI0
aI8
aa(lp189
I4
aI0
aI0
aI4
aa(lp190
I6
aI1
aI0
aI8
aa(lp191
I9
aI1
aI0
aI10
aa(lp192
I7
aI0
aI0
aI4
aa(lp193
I1
aI0
aI0
aI0
aa(lp194
I10
aI1
aI0
aI10
aa(lp195
I1
aI0
aI0
aI0
aa(lp196
I4
aI1
aI0
aI4
aa(lp197
I4
aI0
aI0
aI4
aa.