(lp1
(lp2
I1
aI0
aI0
aI0
aa(lp3
I9
aI0
aI0
aI10
aa(lp4
I8
aI0
aI0
aI6
aa(lp5
I9
aI0
aI0
aI8
aa(lp6
I11
aI0
aI0
aI10
aa(lp7
I6
aI0
aI0
aI4
aa(lp8
I6
aI0
aI0
aI4
aa(lp9
I1
aI0
aI0
aI0
aa(lp10
I4
aI0
aI0
aI0
aa(lp11
I9
aI0
aI0
aI10
aa(lp12
I1
aI0
aI0
aI0
aa(lp13
I1
aI0
aI0
aI0
aa(lp14
I7
aI0
aI0
aI4
aa(lp15
I5
aI1
aI0
aI8
aa(lp16
I5
aI0
aI0
aI0
aa(lp17
I6
aI0
aI0
aI4
aa(lp18
I1
aI0
aI0
aI0
aa(lp19
I1
aI0
aI0
aI0
aa(lp20
I7
aI0
aI0
aI6
aa(lp21
I7
aI0
aI0
aI4
aa(lp22
I6
aI0
aI0
aI22
aa(lp23
I1
aI0
aI0
aI0
aa(lp24
I1
aI0
aI0
aI0
aa(lp25
I5
aI1
aI0
aI12
aa(lp26
I8
aI0
aI0
aI4
aa(lp27
I4
aI0
aI0
aI0
aa(lp28
I9
aI0
aI0
aI10
aa(lp29
I4
aI0
aI0
aI0
aa(lp30
I6
aI0
aI0
aI4
aa(lp31
I7
aI0
aI0
aI10
aa(lp32
I6
aI0
aI0
aI4
aa(lp33
I4
aI0
aI0
aI0
aa(lp34
I4
aI0
aI0
aI0
aa(lp35
I10
aI0
aI0
aI10
aa(lp36
I6
aI0
aI0
aI4
aa(lp37
I6
aI0
aI0
aI8
aa(lp38
I1
aI0
aI0
aI0
aa(lp39
I7
aI0
aI0
aI4
aa(lp40
I7
aI0
aI0
aI4
aa(lp41
I6
aI0
aI0
aI4
aa(lp42
I1
aI0
aI0
aI0
aa(lp43
I1
aI0
aI0
aI0
aa(lp44
I1
aI0
aI0
aI0
aa(lp45
I6
aI0
aI0
aI4
aa(lp46
I1
aI0
aI0
aI0
aa(lp47
I6
aI0
aI0
aI4
aa(lp48
I1
aI0
aI0
aI0
aa(lp49
I7
aI0
aI0
aI4
aa(lp50
I4
aI0
aI0
aI4
aa(lp51
I9
aI0
aI0
aI10
aa(lp52
I4
aI0
aI0
aI2
aa(lp53
I1
aI0
aI0
aI0
aa(lp54
I4
aI0
aI0
aI0
aa(lp55
I1
aI0
aI0
aI0
aa(lp56
I4
aI0
aI0
aI0
aa(lp57
I1
aI0
aI0
aI0
aa(lp58
I1
aI0
aI0
aI0
aa(lp59
I1
aI0
aI0
aI0
aa(lp60
I1
aI0
aI0
aI0
aa(lp61
I9
aI0
aI0
aI10
aa(lp62
I1
aI0
aI0
aI0
aa(lp63
I7
aI0
aI0
aI4
aa(lp64
I7
aI0
aI0
aI8
aa(lp65
I11
aI0
aI0
aI10
aa(lp66
I9
aI0
aI0
aI10
aa(lp67
I4
aI0
aI0
aI0
aa(lp68
I7
aI0
aI0
aI4
aa(lp69
I7
aI0
aI0
aI4
aa(lp70
I1
aI0
aI0
aI0
aa(lp71
I1
aI0
aI0
aI0
aa(lp72
I4
aI0
aI0
aI2
aa(lp73
I1
aI0
aI0
aI0
aa(lp74
I10
aI0
aI0
aI10
aa(lp75
I4
aI0
aI0
aI0
aa(lp76
I4
aI0
aI0
aI4
aa(lp77
I1
aI0
aI0
aI0
aa(lp78
I7
aI0
aI0
aI4
aa(lp79
I4
aI0
aI0
aI4
aa(lp80
I4
aI1
aI0
aI4
aa(lp81
I4
aI0
aI0
aI4
aa(lp82
I4
aI0
aI0
aI4
aa(lp83
I1
aI0
aI0
aI0
aa(lp84
I9
aI0
aI0
aI8
aa(lp85
I9
aI0
aI0
aI8
aa(lp86
I1
aI0
aI0
aI0
aa(lp87
I1
aI0
aI0
aI0
aa(lp88
I4
aI0
aI0
aI0
aa(lp89
I1
aI0
aI0
aI0
aa(lp90
I4
aI0
aI0
aI0
aa(lp91
I5
aI1
aI0
aI12
aa(lp92
I7
aI0
aI0
aI16
aa(lp93
I9
aI0
aI0
aI10
aa(lp94
I4
aI0
aI0
aI0
aa(lp95
I4
aI0
aI0
aI2
aa(lp96
I1
aI0
aI0
aI0
aa(lp97
I7
aI0
aI0
aI10
aa(lp98
I6
aI0
aI0
aI24
aa(lp99
I6
aI0
aI0
aI28
aa(lp100
I4
aI0
aI0
aI0
aa(lp101
I1
aI0
aI0
aI0
aa.