(lp1
(lp2
I5
aI1
aI0
aI8
aa(lp3
I3
aI0
aI0
aI0
aa(lp4
I10
aI0
aI0
aI10
aa(lp5
I4
aI1
aI0
aI4
aa(lp6
I7
aI1
aI0
aI8
aa(lp7
I1
aI0
aI0
aI0
aa(lp8
I3
aI0
aI0
aI2
aa(lp9
I1
aI0
aI0
aI0
aa(lp10
I3
aI0
aI0
aI6
aa(lp11
I1
aI0
aI0
aI0
aa(lp12
I0
aI0
aI0
aI0
aa(lp13
I5
aI1
aI0
aI2
aa(lp14
I8
aI0
aI0
aI12
aa(lp15
I1
aI0
aI0
aI0
aa(lp16
I7
aI1
aI0
aI10
aa(lp17
I3
aI0
aI0
aI2
aa(lp18
I8
aI1
aI0
aI14
aa(lp19
I3
aI0
aI0
aI2
aa(lp20
I5
aI1
aI0
aI8
aa(lp21
I7
aI1
aI0
aI6
aa(lp22
I0
aI0
aI0
aI0
aa(lp23
I0
aI0
aI0
aI0
aa(lp24
I2
aI0
aI0
aI0
aa(lp25
I5
aI0
aI0
aI6
aa(lp26
I4
aI0
aI0
aI2
aa(lp27
I0
aI0
aI0
aI0
aa(lp28
I1
aI0
aI0
aI0
aa(lp29
I4
aI0
aI0
aI4
aa(lp30
I6
aI1
aI0
aI8
aa(lp31
I9
aI1
aI0
aI18
aa.