(lp1
(lp2
I7
aI0
aI0
aI6
aa(lp3
I1
aI0
aI0
aI0
aa(lp4
I0
aI0
aI1
aI1
aa(lp5
I1
aI0
aI0
aI0
aa(lp6
I8
aI0
aI0
aI6
aa(lp7
I0
aI0
aI1
aI1
aa(lp8
I1
aI0
aI0
aI0
aa(lp9
I8
aI0
aI0
aI8
aa(lp10
I9
aI2
aI0
aI10
aa(lp11
I1
aI0
aI0
aI0
aa(lp12
I10
aI2
aI0
aI12
aa(lp13
I7
aI1
aI0
aI10
aa(lp14
I7
aI1
aI0
aI10
aa(lp15
I10
aI0
aI0
aI12
aa(lp16
I1
aI0
aI0
aI0
aa(lp17
I0
aI0
aI1
aI1
aa(lp18
I7
aI1
aI0
aI10
aa(lp19
I10
aI1
aI0
aI10
aa(lp20
I0
aI0
aI1
aI1
aa(lp21
I9
aI2
aI0
aI10
aa(lp22
I7
aI1
aI0
aI4
aa(lp23
I9
aI2
aI0
aI10
aa(lp24
I9
aI1
aI0
aI16
aa(lp25
I1
aI0
aI0
aI0
aa(lp26
I8
aI1
aI0
aI6
aa(lp27
I1
aI0
aI0
aI0
aa(lp28
I7
aI1
aI0
aI4
aa(lp29
I9
aI1
aI0
aI10
aa(lp30
I0
aI0
aI1
aI1
aa(lp31
I1
aI0
aI0
aI0
aa(lp32
I1
aI0
aI0
aI0
aa(lp33
I0
aI0
aI1
aI1
aa(lp34
I10
aI2
aI0
aI14
aa(lp35
I9
aI0
aI0
aI10
aa(lp36
I9
aI1
aI0
aI10
aa(lp37
I7
aI1
aI0
aI4
aa(lp38
I1
aI0
aI0
aI0
aa(lp39
I0
aI0
aI1
aI1
aa(lp40
I1
aI0
aI0
aI0
aa(lp41
I1
aI0
aI0
aI0
aa(lp42
I9
aI1
aI0
aI16
aa(lp43
I10
aI2
aI0
aI14
aa(lp44
I1
aI0
aI0
aI0
aa(lp45
I10
aI2
aI0
aI14
aa(lp46
I1
aI0
aI0
aI0
aa(lp47
I9
aI1
aI0
aI10
aa(lp48
I7
aI1
aI0
aI10
aa(lp49
I1
aI0
aI0
aI0
aa(lp50
I0
aI0
aI1
aI1
aa(lp51
I11
aI1
aI0
aI22
aa(lp52
I7
aI1
aI0
aI4
aa(lp53
I10
aI1
aI0
aI9
aa(lp54
I1
aI0
aI0
aI0
aa(lp55
I1
aI0
aI0
aI0
aa(lp56
I10
aI2
aI0
aI14
aa(lp57
I7
aI0
aI0
aI4
aa(lp58
I7
aI1
aI0
aI10
aa(lp59
I11
aI2
aI0
aI14
aa(lp60
I0
aI0
aI1
aI1
aa(lp61
I7
aI1
aI0
aI8
aa(lp62
I1
aI0
aI0
aI0
aa(lp63
I9
aI2
aI0
aI12
aa(lp64
I9
aI2
aI0
aI10
aa(lp65
I9
aI1
aI0
aI12
aa(lp66
I9
aI1
aI0
aI10
aa(lp67
I0
aI0
aI1
aI1
aa(lp68
I0
aI0
aI1
aI1
aa(lp69
I9
aI1
aI0
aI16
aa(lp70
I0
aI0
aI1
aI1
aa(lp71
I9
aI1
aI0
aI10
aa(lp72
I7
aI0
aI0
aI4
aa(lp73
I0
aI0
aI1
aI1
aa(lp74
I0
aI0
aI1
aI1
aa(lp75
I5
aI1
aI0
aI2
aa(lp76
I6
aI1
aI0
aI7
aa(lp77
I8
aI2
aI0
aI12
aa(lp78
I9
aI1
aI0
aI10
aa(lp79
I10
aI2
aI0
aI12
aa(lp80
I10
aI2
aI0
aI14
aa(lp81
I1
aI0
aI0
aI0
aa(lp82
I1
aI0
aI0
aI0
aa(lp83
I9
aI2
aI0
aI12
aa(lp84
I0
aI0
aI1
aI1
aa(lp85
I1
aI0
aI0
aI0
aa(lp86
I7
aI1
aI0
aI4
aa(lp87
I9
aI2
aI0
aI11
aa(lp88
I7
aI0
aI0
aI10
aa(lp89
I6
aI1
aI0
aI10
aa(lp90
I10
aI2
aI0
aI18
aa(lp91
I9
aI1
aI0
aI22
aa.