(lp1
(lp2
I1
aI0
aI0
aI0
aa(lp3
I4
aI0
aI0
aI0
aa(lp4
I4
aI0
aI0
aI0
aa(lp5
I4
aI0
aI0
aI2
aa(lp6
I6
aI1
aI0
aI4
aa(lp7
I1
aI0
aI0
aI0
aa(lp8
I9
aI1
aI0
aI10
aa(lp9
I5
aI0
aI0
aI2
aa(lp10
I4
aI0
aI0
aI0
aa(lp11
I7
aI0
aI0
aI16
aa(lp12
I4
aI0
aI0
aI0
aa(lp13
I1
aI0
aI0
aI0
aa(lp14
I6
aI0
aI0
aI4
aa(lp15
I8
aI1
aI0
aI10
aa(lp16
I7
aI0
aI0
aI10
aa(lp17
I8
aI1
aI0
aI10
aa(lp18
I9
aI1
aI0
aI20
aa(lp19
I1
aI0
aI0
aI0
aa(lp20
I7
aI0
aI0
aI4
aa(lp21
I8
aI1
aI0
aI8
aa(lp22
I9
aI1
aI0
aI16
aa(lp23
I7
aI0
aI0
aI10
aa(lp24
I4
aI0
aI0
aI4
aa(lp25
I10
aI1
aI0
aI10
aa(lp26
I9
aI1
aI0
aI10
aa(lp27
I1
aI0
aI0
aI0
aa(lp28
I1
aI0
aI0
aI0
aa(lp29
I1
aI0
aI0
aI0
aa(lp30
I1
aI0
aI0
aI0
aa(lp31
I1
aI0
aI0
aI0
aa(lp32
I9
aI1
aI0
aI16
aa(lp33
I1
aI0
aI0
aI0
aa(lp34
I1
aI0
aI0
aI0
aa(lp35
I4
aI0
aI0
aI0
aa(lp36
I9
aI1
aI0
aI18
aa(lp37
I8
aI1
aI0
aI10
aa(lp38
I9
aI1
aI0
aI10
aa(lp39
I1
aI0
aI0
aI0
aa(lp40
I9
aI1
aI0
aI16
aa(lp41
I7
aI0
aI0
aI8
aa(lp42
I6
aI0
aI0
aI8
aa(lp43
I1
aI0
aI0
aI0
aa(lp44
I6
aI1
aI0
aI4
aa(lp45
I4
aI0
aI0
aI0
aa(lp46
I8
aI1
aI0
aI10
aa(lp47
I1
aI0
aI0
aI0
aa(lp48
I4
aI0
aI0
aI0
aa(lp49
I8
aI0
aI0
aI8
aa(lp50
I4
aI0
aI0
aI0
aa(lp51
I6
aI0
aI0
aI8
aa(lp52
I1
aI0
aI0
aI0
aa(lp53
I7
aI1
aI0
aI4
aa(lp54
I1
aI0
aI0
aI0
aa(lp55
I1
aI0
aI0
aI0
aa(lp56
I8
aI0
aI0
aI14
aa(lp57
I1
aI0
aI0
aI0
aa(lp58
I4
aI0
aI0
aI0
aa(lp59
I1
aI0
aI0
aI0
aa(lp60
I7
aI0
aI0
aI4
aa(lp61
I1
aI0
aI0
aI0
aa(lp62
I4
aI0
aI0
aI0
aa(lp63
I1
aI0
aI0
aI0
aa(lp64
I1
aI0
aI0
aI0
aa(lp65
I1
aI0
aI0
aI0
aa(lp66
I6
aI0
aI0
aI4
aa(lp67
I9
aI1
aI0
aI10
aa(lp68
I1
aI0
aI0
aI0
aa(lp69
I7
aI0
aI0
aI4
aa(lp70
I6
aI1
aI0
aI4
aa(lp71
I7
aI0
aI0
aI6
aa(lp72
I7
aI0
aI0
aI10
aa(lp73
I1
aI0
aI0
aI0
aa(lp74
I9
aI1
aI0
aI10
aa(lp75
I8
aI1
aI0
aI10
aa(lp76
I4
aI0
aI0
aI0
aa(lp77
I4
aI0
aI0
aI0
aa(lp78
I1
aI0
aI0
aI0
aa(lp79
I4
aI0
aI0
aI0
aa(lp80
I10
aI1
aI0
aI10
aa(lp81
I3
aI0
aI0
aI0
aa(lp82
I4
aI0
aI0
aI4
aa(lp83
I6
aI1
aI0
aI8
aa(lp84
I8
aI1
aI0
aI10
aa(lp85
I4
aI0
aI0
aI4
aa(lp86
I6
aI1
aI0
aI12
aa(lp87
I6
aI1
aI0
aI4
aa(lp88
I7
aI0
aI0
aI10
aa(lp89
I7
aI1
aI0
aI8
aa(lp90
I9
aI1
aI0
aI16
aa(lp91
I1
aI0
aI0
aI0
aa(lp92
I4
aI0
aI0
aI0
aa(lp93
I1
aI0
aI0
aI0
aa(lp94
I9
aI1
aI0
aI12
aa(lp95
I7
aI0
aI0
aI14
aa(lp96
I7
aI0
aI0
aI12
aa(lp97
I1
aI0
aI0
aI0
aa(lp98
I7
aI0
aI0
aI4
aa(lp99
I4
aI0
aI0
aI0
aa(lp100
I4
aI0
aI0
aI0
aa(lp101
I8
aI1
aI0
aI10
aa.