(lp1
(lp2
I1
aI0
aI0
aI0
aa(lp3
I9
aI1
aI0
aI14
aa(lp4
I0
aI0
aI1
aI1
aa(lp5
I7
aI0
aI0
aI6
aa(lp6
I10
aI2
aI0
aI18
aa(lp7
I1
aI0
aI0
aI0
aa(lp8
I9
aI1
aI0
aI16
aa(lp9
I1
aI0
aI0
aI0
aa(lp10
I9
aI0
aI0
aI10
aa(lp11
I1
aI0
aI0
aI0
aa(lp12
I1
aI0
aI0
aI0
aa(lp13
I7
aI0
aI0
aI6
aa(lp14
I5
aI0
aI0
aI2
aa(lp15
I8
aI0
aI0
aI6
aa(lp16
I10
aI0
aI0
aI12
aa(lp17
I1
aI0
aI0
aI0
aa(lp18
I0
aI0
aI1
aI1
aa(lp19
I7
aI0
aI0
aI4
aa(lp20
I6
aI1
aI0
aI4
aa(lp21
I0
aI0
aI1
aI1
aa(lp22
I0
aI0
aI0
aI0
aa(lp23
I7
aI0
aI0
aI8
aa(lp24
I1
aI0
aI0
aI0
aa(lp25
I6
aI1
aI0
aI10
aa(lp26
I6
aI1
aI0
aI4
aa(lp27
I4
aI1
aI0
aI4
aa(lp28
I0
aI0
aI1
aI1
aa(lp29
I7
aI1
aI0
aI10
aa(lp30
I0
aI0
aI1
aI1
aa(lp31
I10
aI1
aI0
aI8
aa(lp32
I1
aI0
aI0
aI0
aa(lp33
I4
aI0
aI0
aI0
aa(lp34
I1
aI0
aI0
aI0
aa(lp35
I1
aI0
aI0
aI0
aa(lp36
I9
aI1
aI0
aI10
aa(lp37
I6
aI1
aI0
aI4
aa(lp38
I9
aI1
aI0
aI16
aa(lp39
I1
aI0
aI0
aI0
aa(lp40
I0
aI0
aI1
aI1
aa(lp41
I8
aI1
aI0
aI6
aa(lp42
I10
aI2
aI0
aI14
aa(lp43
I7
aI0
aI0
aI4
aa(lp44
I9
aI1
aI0
aI10
aa(lp45
I6
aI1
aI0
aI4
aa(lp46
I0
aI0
aI0
aI0
aa(lp47
I7
aI1
aI0
aI10
aa(lp48
I7
aI0
aI0
aI4
aa(lp49
I1
aI0
aI0
aI0
aa(lp50
I7
aI0
aI0
aI12
aa(lp51
I0
aI0
aI1
aI1
aa(lp52
I9
aI1
aI0
aI10
aa(lp53
I1
aI0
aI0
aI0
aa(lp54
I5
aI0
aI0
aI2
aa(lp55
I9
aI1
aI0
aI10
aa(lp56
I10
aI2
aI0
aI12
aa(lp57
I4
aI0
aI0
aI0
aa(lp58
I4
aI0
aI0
aI0
aa(lp59
I4
aI0
aI0
aI4
aa(lp60
I0
aI0
aI0
aI0
aa(lp61
I6
aI0
aI0
aI0
aa(lp62
I8
aI0
aI0
aI4
aa(lp63
I9
aI1
aI0
aI10
aa(lp64
I4
aI0
aI0
aI4
aa(lp65
I9
aI2
aI0
aI12
aa(lp66
I4
aI0
aI0
aI0
aa(lp67
I1
aI0
aI0
aI0
aa(lp68
I7
aI0
aI0
aI4
aa(lp69
I1
aI0
aI0
aI0
aa(lp70
I9
aI1
aI0
aI18
aa(lp71
I7
aI1
aI0
aI8
aa(lp72
I7
aI0
aI0
aI12
aa(lp73
I1
aI0
aI0
aI0
aa(lp74
I1
aI0
aI0
aI0
aa(lp75
I1
aI0
aI0
aI0
aa(lp76
I1
aI0
aI0
aI0
aa(lp77
I9
aI1
aI0
aI10
aa(lp78
I1
aI0
aI0
aI0
aa(lp79
I6
aI1
aI0
aI4
aa(lp80
I1
aI0
aI0
aI0
aa(lp81
I0
aI0
aI1
aI1
aa(lp82
I10
aI1
aI0
aI10
aa(lp83
I6
aI1
aI0
aI4
aa(lp84
I7
aI0
aI0
aI4
aa(lp85
I1
aI0
aI0
aI0
aa(lp86
I0
aI0
aI1
aI1
aa(lp87
I4
aI0
aI0
aI0
aa(lp88
I1
aI0
aI0
aI0
aa(lp89
I6
aI1
aI0
aI4
aa(lp90
I4
aI0
aI0
aI0
aa(lp91
I5
aI0
aI0
aI0
aa(lp92
I6
aI1
aI0
aI4
aa(lp93
I8
aI2
aI0
aI12
aa(lp94
I4
aI0
aI0
aI0
aa(lp95
I10
aI2
aI0
aI14
aa(lp96
I4
aI0
aI0
aI0
aa(lp97
I8
aI0
aI0
aI8
aa(lp98
I4
aI0
aI0
aI0
aa(lp99
I1
aI0
aI0
aI0
aa(lp100
I1
aI0
aI0
aI0
aa(lp101
I6
aI1
aI0
aI4
aa(lp102
I11
aI2
aI0
aI22
aa(lp103
I4
aI0
aI0
aI0
aa(lp104
I6
aI1
aI0
aI4
aa(lp105
I7
aI0
aI0
aI4
aa(lp106
I1
aI0
aI0
aI0
aa(lp107
I6
aI1
aI0
aI8
aa(lp108
I9
aI1
aI0
aI12
aa(lp109
I7
aI1
aI0
aI4
aa(lp110
I0
aI0
aI0
aI0
aa(lp111
I7
aI0
aI0
aI4
aa(lp112
I4
aI1
aI0
aI4
aa(lp113
I1
aI0
aI0
aI0
aa(lp114
I7
aI0
aI0
aI16
aa(lp115
I7
aI0
aI0
aI4
aa(lp116
I4
aI0
aI0
aI0
aa(lp117
I1
aI0
aI0
aI0
aa(lp118
I9
aI1
aI0
aI10
aa(lp119
I9
aI1
aI0
aI10
aa(lp120
I4
aI0
aI0
aI0
aa(lp121
I1
aI0
aI0
aI0
aa(lp122
I4
aI0
aI0
aI0
aa(lp123
I1
aI0
aI0
aI0
aa(lp124
I10
aI0
aI0
aI12
aa(lp125
I4
aI0
aI0
aI0
aa(lp126
I1
aI0
aI0
aI0
aa(lp127
I1
aI0
aI0
aI0
aa(lp128
I1
aI0
aI0
aI0
aa(lp129
I1
aI0
aI0
aI0
aa(lp130
I1
aI0
aI0
aI0
aa(lp131
I7
aI0
aI0
aI4
aa(lp132
I11
aI2
aI0
aI14
aa(lp133
I9
aI1
aI0
aI10
aa(lp134
I6
aI1
aI0
aI4
aa(lp135
I0
aI0
aI1
aI1
aa(lp136
I9
aI1
aI0
aI10
aa(lp137
I1
aI0
aI0
aI0
aa(lp138
I0
aI0
aI1
aI1
aa(lp139
I2
aI0
aI0
aI0
aa(lp140
I8
aI0
aI0
aI20
aa(lp141
I10
aI1
aI0
aI9
aa(lp142
I9
aI1
aI0
aI8
aa(lp143
I1
aI0
aI0
aI0
aa(lp144
I7
aI0
aI0
aI10
aa(lp145
I7
aI0
aI0
aI6
aa(lp146
I4
aI0
aI0
aI0
aa(lp147
I9
aI2
aI0
aI10
aa(lp148
I4
aI0
aI0
aI0
aa(lp149
I1
aI0
aI0
aI0
aa(lp150
I1
aI0
aI0
aI0
aa(lp151
I4
aI0
aI0
aI0
aa(lp152
I9
aI1
aI0
aI10
aa(lp153
I7
aI0
aI0
aI10
aa(lp154
I4
aI1
aI0
aI2
aa(lp155
I7
aI0
aI0
aI4
aa(lp156
I5
aI0
aI0
aI2
aa(lp157
I6
aI1
aI0
aI4
aa(lp158
I6
aI1
aI0
aI4
aa(lp159
I7
aI0
aI0
aI10
aa(lp160
I1
aI0
aI0
aI0
aa(lp161
I0
aI0
aI0
aI0
aa(lp162
I4
aI0
aI0
aI0
aa(lp163
I4
aI0
aI0
aI4
aa(lp164
I7
aI0
aI0
aI14
aa(lp165
I1
aI0
aI0
aI0
aa(lp166
I1
aI0
aI0
aI0
aa(lp167
I7
aI0
aI0
aI10
aa(lp168
I1
aI0
aI0
aI0
aa(lp169
I9
aI1
aI0
aI20
aa(lp170
I1
aI0
aI0
aI0
aa(lp171
I1
aI0
aI0
aI0
aa(lp172
I0
aI0
aI0
aI0
aa(lp173
I7
aI1
aI0
aI4
aa(lp174
I1
aI0
aI0
aI0
aa(lp175
I6
aI1
aI0
aI4
aa(lp176
I1
aI0
aI0
aI0
aa(lp177
I1
aI0
aI0
aI0
aa(lp178
I6
aI0
aI0
aI4
aa(lp179
I6
aI1
aI0
aI4
aa(lp180
I10
aI2
aI0
aI14
aa(lp181
I9
aI0
aI0
aI14
aa(lp182
I4
aI0
aI0
aI2
aa(lp183
I1
aI0
aI0
aI0
aa(lp184
I1
aI0
aI0
aI0
aa(lp185
I6
aI1
aI0
aI4
aa(lp186
I1
aI0
aI0
aI0
aa(lp187
I7
aI0
aI0
aI8
aa(lp188
I1
aI0
aI0
aI0
aa(lp189
I7
aI0
aI0
aI4
aa(lp190
I8
aI0
aI0
aI6
aa(lp191
I7
aI0
aI0
aI12
aa(lp192
I10
aI1
aI0
aI10
aa(lp193
I4
aI0
aI0
aI0
aa(lp194
I1
aI0
aI0
aI0
aa(lp195
I1
aI0
aI0
aI0
aa(lp196
I9
aI1
aI0
aI8
aa(lp197
I7
aI0
aI0
aI6
aa(lp198
I7
aI0
aI0
aI12
aa(lp199
I9
aI1
aI0
aI10
aa(lp200
I9
aI2
aI0
aI12
aa(lp201
I9
aI1
aI0
aI14
aa(lp202
I1
aI0
aI0
aI0
aa(lp203
I1
aI0
aI0
aI0
aa(lp204
I4
aI0
aI0
aI4
aa(lp205
I7
aI0
aI0
aI8
aa(lp206
I4
aI0
aI0
aI0
aa(lp207
I1
aI0
aI0
aI0
aa(lp208
I9
aI1
aI0
aI16
aa(lp209
I1
aI0
aI0
aI0
aa(lp210
I7
aI1
aI0
aI10
aa(lp211
I9
aI1
aI0
aI10
aa(lp212
I1
aI0
aI0
aI0
aa(lp213
I0
aI0
aI0
aI0
aa(lp214
I1
aI0
aI0
aI0
aa(lp215
I7
aI0
aI0
aI4
aa(lp216
I7
aI0
aI0
aI10
aa(lp217
I4
aI0
aI0
aI0
aa(lp218
I7
aI1
aI0
aI4
aa(lp219
I7
aI0
aI0
aI4
aa(lp220
I9
aI2
aI0
aI11
aa(lp221
I1
aI0
aI0
aI0
aa(lp222
I1
aI0
aI0
aI0
aa(lp223
I9
aI1
aI0
aI10
aa(lp224
I4
aI0
aI0
aI0
aa(lp225
I10
aI2
aI0
aI12
aa(lp226
I10
aI1
aI0
aI10
aa(lp227
I6
aI1
aI0
aI8
aa(lp228
I7
aI1
aI0
aI10
aa(lp229
I4
aI0
aI0
aI0
aa(lp230
I1
aI0
aI0
aI0
aa(lp231
I4
aI0
aI0
aI0
aa(lp232
I0
aI0
aI0
aI0
aa(lp233
I9
aI1
aI0
aI12
aa(lp234
I9
aI2
aI0
aI10
aa(lp235
I0
aI0
aI0
aI0
aa(lp236
I9
aI1
aI0
aI10
aa(lp237
I1
aI0
aI0
aI0
aa(lp238
I9
aI1
aI0
aI16
aa(lp239
I10
aI0
aI0
aI12
aa(lp240
I7
aI1
aI0
aI10
aa(lp241
I1
aI0
aI0
aI0
aa(lp242
I1
aI0
aI0
aI0
aa(lp243
I7
aI0
aI0
aI4
aa(lp244
I7
aI0
aI0
aI14
aa(lp245
I6
aI1
aI0
aI8
aa(lp246
I8
aI0
aI0
aI14
aa(lp247
I7
aI0
aI0
aI10
aa(lp248
I4
aI0
aI0
aI4
aa(lp249
I4
aI0
aI0
aI0
aa(lp250
I6
aI1
aI0
aI4
aa(lp251
I9
aI1
aI0
aI22
aa(lp252
I7
aI1
aI0
aI4
aa(lp253
I4
aI0
aI0
aI0
aa(lp254
I7
aI0
aI0
aI4
aa(lp255
I3
aI0
aI0
aI0
aa(lp256
I6
aI1
aI0
aI4
aa(lp257
I1
aI0
aI0
aI0
aa(lp258
I7
aI0
aI0
aI4
aa(lp259
I7
aI0
aI0
aI4
aa(lp260
I9
aI2
aI0
aI10
aa(lp261
I4
aI0
aI0
aI0
aa(lp262
I1
aI0
aI0
aI0
aa(lp263
I7
aI1
aI0
aI4
aa(lp264
I4
aI0
aI0
aI4
aa(lp265
I6
aI1
aI0
aI8
aa(lp266
I9
aI1
aI0
aI16
aa(lp267
I5
aI0
aI0
aI0
aa(lp268
I9
aI1
aI0
aI16
aa(lp269
I1
aI0
aI0
aI0
aa(lp270
I0
aI0
aI1
aI1
aa(lp271
I0
aI0
aI1
aI1
aa(lp272
I6
aI1
aI0
aI4
aa(lp273
I10
aI2
aI0
aI14
aa(lp274
I1
aI0
aI0
aI0
aa(lp275
I11
aI2
aI0
aI18
aa(lp276
I7
aI1
aI0
aI8
aa(lp277
I10
aI2
aI0
aI14
aa(lp278
I4
aI0
aI0
aI0
aa(lp279
I7
aI1
aI0
aI4
aa(lp280
I9
aI1
aI0
aI10
aa(lp281
I11
aI1
aI0
aI22
aa(lp282
I6
aI1
aI0
aI4
aa(lp283
I1
aI0
aI0
aI0
aa(lp284
I9
aI2
aI0
aI10
aa(lp285
I1
aI0
aI0
aI0
aa(lp286
I7
aI1
aI0
aI4
aa(lp287
I1
aI0
aI0
aI0
aa(lp288
I4
aI0
aI0
aI4
aa(lp289
I1
aI0
aI0
aI0
aa(lp290
I4
aI0
aI0
aI0
aa(lp291
I1
aI0
aI0
aI0
aa(lp292
I7
aI0
aI0
aI10
aa(lp293
I0
aI0
aI1
aI1
aa(lp294
I0
aI0
aI1
aI1
aa(lp295
I1
aI0
aI0
aI0
aa(lp296
I6
aI1
aI0
aI4
aa(lp297
I7
aI0
aI0
aI10
aa(lp298
I4
aI0
aI0
aI2
aa(lp299
I1
aI0
aI0
aI0
aa(lp300
I1
aI0
aI0
aI0
aa(lp301
I4
aI0
aI0
aI0
aa.